Certificate:
    Data:
        Version: 3 (0x2)
        Serial Number:
            8c:4b:9e:78:4f:ac:cb:7d
    Signature Algorithm: sha256WithRSAEncryption
        Issuer: C=AU, ST=Some-State, O=Internet Widgits Pty Ltd, CN=beatpulse.com
        Validity
            Not Before: Aug 27 21:24:07 2018 GMT
            Not After : Aug 26 21:24:07 2021 GMT
        Subject: C=AU, ST=Some-State, O=Internet Widgits Pty Ltd, CN=beatpulse.com
        Subject Public Key Info:
            Public Key Algorithm: rsaEncryption
                Public-Key: (2048 bit)
                Modulus:
                    00:e6:69:78:23:62:29:c8:12:4c:82:af:d0:bd:20:
                    87:a8:e6:9d:e6:58:2a:8f:55:6c:78:88:5e:5d:34:
                    7c:9d:38:87:3d:61:0c:c3:a9:c8:23:75:af:cd:bb:
                    85:bb:cb:4c:36:d2:ea:b2:df:bc:74:f0:df:29:3f:
                    b0:b9:ec:dd:5c:53:c3:35:0a:ac:8c:d3:79:03:c0:
                    31:36:7e:b9:f6:1a:5f:46:51:c8:d0:37:69:bc:43:
                    2a:9b:94:7d:bd:80:dd:c1:ca:26:f2:ca:76:d5:ac:
                    03:d7:c2:e3:81:cf:3c:0f:c2:7c:d1:49:7a:47:fd:
                    ba:6b:b2:70:30:04:72:b0:2a:af:a1:b8:60:f7:bb:
                    c2:0b:d4:0b:6e:a5:45:17:7e:c8:00:64:3c:85:d3:
                    9f:03:d1:48:ed:7e:8f:e7:61:86:7f:06:fa:c8:38:
                    55:57:74:27:8b:72:bc:d0:28:a4:29:36:f3:a8:ec:
                    17:44:d3:4a:46:0c:4f:81:f8:c5:8b:d6:28:27:dd:
                    ba:c3:80:0d:47:ba:bc:61:c2:87:64:cf:78:a0:00:
                    91:73:39:21:d9:12:11:cf:6f:6a:20:d7:b2:fb:d1:
                    c7:57:c5:b9:a0:f5:2e:80:de:e9:c1:50:54:e6:ab:
                    48:d2:60:f5:2c:96:8c:e2:15:78:82:6b:fd:91:41:
                    41:03
                Exponent: 65537 (0x10001)
        X509v3 extensions:
            X509v3 Subject Key Identifier: 
                77:C2:D5:CF:66:BB:1B:BF:B7:47:15:0B:BA:0C:53:EF:64:DA:07:F5
            X509v3 Authority Key Identifier: 
                keyid:77:C2:D5:CF:66:BB:1B:BF:B7:47:15:0B:BA:0C:53:EF:64:DA:07:F5

            X509v3 Basic Constraints: critical
                CA:TRUE
    Signature Algorithm: sha256WithRSAEncryption
         a1:6e:b7:0e:a9:7b:53:5f:31:7f:24:71:75:06:cf:c1:3e:53:
         5a:ad:45:eb:da:ff:85:12:9d:cf:3c:13:9b:b5:5b:75:32:27:
         01:17:e2:74:1b:49:66:74:23:ca:4e:d3:b0:0c:24:a6:fb:f0:
         53:30:e2:fe:b9:40:28:29:68:0c:5b:6d:57:06:08:d5:41:2d:
         40:95:50:b4:1d:ab:f6:e0:a6:e7:7b:17:db:72:c8:2f:a2:71:
         fe:70:a2:16:cf:d9:5f:6b:fc:21:94:9f:7d:4c:bc:7e:f3:17:
         8c:af:4d:17:a4:b9:2f:7a:28:3e:f5:93:c5:0b:15:05:a9:16:
         92:29:27:5e:d1:78:65:50:a0:10:be:87:dd:fa:e3:13:2a:7d:
         7f:50:bc:7c:13:ac:f2:56:40:c7:47:e6:84:45:b2:f7:4d:52:
         61:59:2e:1e:94:8c:a6:15:98:a7:f9:a7:81:2c:ff:06:eb:c0:
         53:8a:2d:6d:ae:c2:fa:12:f4:9f:d9:70:cb:b8:f7:8c:20:f7:
         b0:1d:90:8d:a9:b1:0e:d6:0f:a0:3d:c2:b4:16:99:16:c4:8f:
         e5:da:e1:4e:5c:22:71:43:7e:13:96:d0:d6:70:8f:c7:b6:b5:
         81:a6:31:91:19:1a:64:2e:d6:08:f5:2f:94:13:5b:17:e7:bb:
         a7:58:74:a3
-----BEGIN CERTIFICATE-----
MIIDkDCCAnigAwIBAgIJAIxLnnhPrMt9MA0GCSqGSIb3DQEBCwUAMF0xCzAJBgNV
BAYTAkFVMRMwEQYDVQQIDApTb21lLVN0YXRlMSEwHwYDVQQKDBhJbnRlcm5ldCBX
aWRnaXRzIFB0eSBMdGQxFjAUBgNVBAMMDWJlYXRwdWxzZS5jb20wHhcNMTgwODI3
MjEyNDA3WhcNMjEwODI2MjEyNDA3WjBdMQswCQYDVQQGEwJBVTETMBEGA1UECAwK
U29tZS1TdGF0ZTEhMB8GA1UECgwYSW50ZXJuZXQgV2lkZ2l0cyBQdHkgTHRkMRYw
FAYDVQQDDA1iZWF0cHVsc2UuY29tMIIBIjANBgkqhkiG9w0BAQEFAAOCAQ8AMIIB
CgKCAQEA5ml4I2IpyBJMgq/QvSCHqOad5lgqj1VseIheXTR8nTiHPWEMw6nII3Wv
zbuFu8tMNtLqst+8dPDfKT+wuezdXFPDNQqsjNN5A8AxNn659hpfRlHI0DdpvEMq
m5R9vYDdwcom8sp21awD18Ljgc88D8J80Ul6R/26a7JwMARysCqvobhg97vCC9QL
bqVFF37IAGQ8hdOfA9FI7X6P52GGfwb6yDhVV3Qni3K80CikKTbzqOwXRNNKRgxP
gfjFi9YoJ926w4ANR7q8YcKHZM94oACRczkh2RIRz29qINey+9HHV8W5oPUugN7p
wVBU5qtI0mD1LJaM4hV4gmv9kUFBAwIDAQABo1MwUTAdBgNVHQ4EFgQUd8LVz2a7
G7+3RxULugxT72TaB/UwHwYDVR0jBBgwFoAUd8LVz2a7G7+3RxULugxT72TaB/Uw
DwYDVR0TAQH/BAUwAwEB/zANBgkqhkiG9w0BAQsFAAOCAQEAoW63Dql7U18xfyRx
dQbPwT5TWq1F69r/hRKdzzwTm7VbdTInARfidBtJZnQjyk7TsAwkpvvwUzDi/rlA
KCloDFttVwYI1UEtQJVQtB2r9uCm53sX23LIL6Jx/nCiFs/ZX2v8IZSffUy8fvMX
jK9NF6S5L3ooPvWTxQsVBakWkiknXtF4ZVCgEL6H3frjEyp9f1C8fBOs8lZAx0fm
hEWy901SYVkuHpSMphWYp/mngSz/BuvAU4otba7C+hL0n9lwy7j3jCD3sB2Qjamx
DtYPoD3CtBaZFsSP5drhTlwicUN+E5bQ1nCPx7a1gaYxkRkaZC7WCPUvlBNbF+e7
p1h0ow==
-----END CERTIFICATE-----
