-----BEGIN PRIVATE KEY-----
MIIEvwIBADANBgkqhkiG9w0BAQEFAASCBKkwggSlAgEAAoIBAQDKKahJQxtw1Phq
ol8jqMsdXc20EQGHZP60/cIEyPTpTvFbL9pB8xB8VmzUe3cyWBHk6BhVUzwCEsg1
GAuMMCjiMnILhpT63dA1vjfbtIxAgz6EXfrl7rrxiL+vbcu3DxQFqmwgxVQJfJHG
RbqTH0FtIEVEQ906Oo+BejtmegO3rw2iG02rt0T+Jkl41+n+QnVogqG8n3COpzBD
2B4T2CwC08h2McBk3vQ9LkxAx6VKWChSBQMZFqZhhR3G4B8rvJamdV8AuccU8Vy0
sjYFNabYyhmRGXiyx6kUKwa5eq4gdLUfYhHm62rSJtL03WA1TJGkZ9Rm7dsk7Lq9
AlMtZHAhAgMBAAECggEACC11NDl1s7O5tL6KsKuUQ8TWnFEPycVJFFMrdPwYBBQA
aVrfLknBwfXRAytXX/72AldtHI54X/EYjiVB2lLcZIH74QF5p0gvsuzV35pHDhkA
/2O50XE9uKV6c4MyeV4vxiblptG0m4mhb+7EJE1gXSSwCJniKgfSZD9ohbWrztNA
a5IT4auuxcFJ5qoeR5sT/Fvu2h3cPWJKLR/WMffTWGQaqqw8+usyst/9S8eilNbt
9Et5rhCvOMNXCcd3D9oLe+AhDnANwo6XxAfubUN1DhpyJYCJ7hmLekZhDP4igrtY
up6AUpqRiFm2SCLIzp9lgPwyGfC972ediRsnz4XALQKBgQD9jd1oPo+C5zNqnBRu
UfyCm/fQH8kpk7Vtf7QiIcQXVZ/QKjjx5SFWFWIeNf8+4h13eX15vCHDNVV8+xLd
7vz9SaX+Ir3LB/Y5+BZGBDAc2D23ZEPMM/P66RyG+Lwlev9+GX1Jzy289Domu5Iz
ztce/JEpW4KMUIu6GRC27iG+3wKBgQDMHOJ/9Vt5t+upRaJE8idHivsbMTE1kxVX
Dbk/FCoqF/aMKbMeWFLypRNVXgfPVHrtkKRQ6mR91IuUU9EJS1HdvWousaY2tGUJ
9I0FncL5MY5jJVUykNbPscgqpCR11B0Z3O1I//7yDR9PPoB77rIUdzKXhl1RU4FD
AlHlYTKw/wKBgQDsGQp+xCpb6S9+aQG5TEyFzfeua7qkJW9+G7i/Q5PVapyaeIZ3
8DTfdJ/do8geZOytUIpfLah+ng4Rh7UkxSH8NHUFtJHoGWzUw8bxwXqPkWe+efWL
kyDvldtDbx+7AtIfOFrqvKlJVl1DrctQxJyZtPLygMyKHYJOcoKW5By2HwKBgQC/
T/eQffXOgXAWSZlNzDa63O59zz7Te1gOL2PJVuoqaCmDuHYV5C1jFwynACqLzyAl
WWRaH0gvlK97SJBuiLVkA+zpdUNYlP77NMeVUwhzr1pJXa2cZpuhMn5uUUmHU1gv
bJ7PxHo+f8Qv72JYRyONAShfU+ZVmtJWb285c0AjGwKBgQCxHktYTO6icS79Wc4r
1wiNxUu/OcksAJnU1LNNSzeteauJ136F2frlnXG72bwVUftmqckBGek+atW/PEz/
gFTwUywjuq9Q7h9ZDmp71op6lRxVT25grjKucPtEH5wzXXjeIjsu4UshzpbqEi9i
iU88yLsc+8QcXwIHyAlurgzYDA==
-----END PRIVATE KEY-----
Certificate:
    Data:
        Version: 3 (0x2)
        Serial Number:
            8c:4b:9e:78:4f:ac:cb:7e
    Signature Algorithm: sha256WithRSAEncryption
        Issuer: C=AU, ST=Some-State, O=Internet Widgits Pty Ltd, CN=beatpulse.com
        Validity
            Not Before: Aug 27 21:24:26 2018 GMT
            Not After : Aug 27 21:24:26 2019 GMT
        Subject: C=AU, ST=Some-State, O=Internet Widgits Pty Ltd, CN=mail.beatpulse.com
        Subject Public Key Info:
            Public Key Algorithm: rsaEncryption
                Public-Key: (2048 bit)
                Modulus:
                    00:ca:29:a8:49:43:1b:70:d4:f8:6a:a2:5f:23:a8:
                    cb:1d:5d:cd:b4:11:01:87:64:fe:b4:fd:c2:04:c8:
                    f4:e9:4e:f1:5b:2f:da:41:f3:10:7c:56:6c:d4:7b:
                    77:32:58:11:e4:e8:18:55:53:3c:02:12:c8:35:18:
                    0b:8c:30:28:e2:32:72:0b:86:94:fa:dd:d0:35:be:
                    37:db:b4:8c:40:83:3e:84:5d:fa:e5:ee:ba:f1:88:
                    bf:af:6d:cb:b7:0f:14:05:aa:6c:20:c5:54:09:7c:
                    91:c6:45:ba:93:1f:41:6d:20:45:44:43:dd:3a:3a:
                    8f:81:7a:3b:66:7a:03:b7:af:0d:a2:1b:4d:ab:b7:
                    44:fe:26:49:78:d7:e9:fe:42:75:68:82:a1:bc:9f:
                    70:8e:a7:30:43:d8:1e:13:d8:2c:02:d3:c8:76:31:
                    c0:64:de:f4:3d:2e:4c:40:c7:a5:4a:58:28:52:05:
                    03:19:16:a6:61:85:1d:c6:e0:1f:2b:bc:96:a6:75:
                    5f:00:b9:c7:14:f1:5c:b4:b2:36:05:35:a6:d8:ca:
                    19:91:19:78:b2:c7:a9:14:2b:06:b9:7a:ae:20:74:
                    b5:1f:62:11:e6:eb:6a:d2:26:d2:f4:dd:60:35:4c:
                    91:a4:67:d4:66:ed:db:24:ec:ba:bd:02:53:2d:64:
                    70:21
                Exponent: 65537 (0x10001)
        X509v3 extensions:
            X509v3 Basic Constraints: 
                CA:FALSE
            Netscape Comment: 
                OpenSSL Generated Certificate
            X509v3 Subject Key Identifier: 
                1F:DA:7E:41:5F:C8:19:62:7F:93:F5:D4:BC:1C:C3:56:A7:C8:E7:9B
            X509v3 Authority Key Identifier: 
                keyid:77:C2:D5:CF:66:BB:1B:BF:B7:47:15:0B:BA:0C:53:EF:64:DA:07:F5

    Signature Algorithm: sha256WithRSAEncryption
         30:74:7d:10:de:21:53:33:b4:fb:6e:65:70:f3:02:9d:ae:d6:
         d6:df:48:2e:bd:da:db:8e:5b:86:f6:ea:50:67:3a:90:96:a3:
         99:e2:55:29:e9:72:f0:9b:ca:39:08:66:12:60:1a:97:58:52:
         61:1c:1e:0c:e1:3e:1a:75:4f:8f:3f:27:83:cb:9d:95:64:e9:
         35:4e:0a:ec:20:78:70:c6:b1:25:03:2b:d1:c4:c2:84:ef:e2:
         d0:a0:87:17:17:90:6e:35:6e:16:60:b7:e4:c0:48:21:73:2f:
         ff:cf:e3:9d:e2:47:72:45:ce:9d:fc:91:89:aa:50:a5:73:ef:
         13:e7:80:e8:40:a9:6b:0b:fe:aa:37:35:7f:82:c7:8d:79:57:
         6d:65:97:f2:53:d6:71:42:ca:7d:af:61:16:30:35:15:c1:4f:
         b2:99:c7:bd:bb:40:8f:9b:30:6d:42:ae:c8:6a:52:93:f4:44:
         74:86:f7:9b:ab:c4:de:47:33:d3:79:2a:4d:a0:0e:55:84:de:
         fd:7c:b7:19:45:74:18:f9:25:32:34:a0:65:ce:db:87:24:bf:
         cf:13:98:63:e6:92:3a:94:f6:0e:e3:8a:ec:91:29:d8:8c:11:
         ac:71:9f:20:be:39:fb:f8:21:15:65:cd:b6:0a:f4:09:45:fe:
         79:fc:16:47
-----BEGIN CERTIFICATE-----
MIIDvTCCAqWgAwIBAgIJAIxLnnhPrMt+MA0GCSqGSIb3DQEBCwUAMF0xCzAJBgNV
BAYTAkFVMRMwEQYDVQQIDApTb21lLVN0YXRlMSEwHwYDVQQKDBhJbnRlcm5ldCBX
aWRnaXRzIFB0eSBMdGQxFjAUBgNVBAMMDWJlYXRwdWxzZS5jb20wHhcNMTgwODI3
MjEyNDI2WhcNMTkwODI3MjEyNDI2WjBiMQswCQYDVQQGEwJBVTETMBEGA1UECAwK
U29tZS1TdGF0ZTEhMB8GA1UECgwYSW50ZXJuZXQgV2lkZ2l0cyBQdHkgTHRkMRsw
GQYDVQQDDBJtYWlsLmJlYXRwdWxzZS5jb20wggEiMA0GCSqGSIb3DQEBAQUAA4IB
DwAwggEKAoIBAQDKKahJQxtw1Phqol8jqMsdXc20EQGHZP60/cIEyPTpTvFbL9pB
8xB8VmzUe3cyWBHk6BhVUzwCEsg1GAuMMCjiMnILhpT63dA1vjfbtIxAgz6EXfrl
7rrxiL+vbcu3DxQFqmwgxVQJfJHGRbqTH0FtIEVEQ906Oo+BejtmegO3rw2iG02r
t0T+Jkl41+n+QnVogqG8n3COpzBD2B4T2CwC08h2McBk3vQ9LkxAx6VKWChSBQMZ
FqZhhR3G4B8rvJamdV8AuccU8Vy0sjYFNabYyhmRGXiyx6kUKwa5eq4gdLUfYhHm
62rSJtL03WA1TJGkZ9Rm7dsk7Lq9AlMtZHAhAgMBAAGjezB5MAkGA1UdEwQCMAAw
LAYJYIZIAYb4QgENBB8WHU9wZW5TU0wgR2VuZXJhdGVkIENlcnRpZmljYXRlMB0G
A1UdDgQWBBQf2n5BX8gZYn+T9dS8HMNWp8jnmzAfBgNVHSMEGDAWgBR3wtXPZrsb
v7dHFQu6DFPvZNoH9TANBgkqhkiG9w0BAQsFAAOCAQEAMHR9EN4hUzO0+25lcPMC
na7W1t9ILr3a245bhvbqUGc6kJajmeJVKely8JvKOQhmEmAal1hSYRweDOE+GnVP
jz8ng8udlWTpNU4K7CB4cMaxJQMr0cTChO/i0KCHFxeQbjVuFmC35MBIIXMv/8/j
neJHckXOnfyRiapQpXPvE+eA6ECpawv+qjc1f4LHjXlXbWWX8lPWcULKfa9hFjA1
FcFPspnHvbtAj5swbUKuyGpSk/REdIb3m6vE3kcz03kqTaAOVYTe/Xy3GUV0GPkl
MjSgZc7bhyS/zxOYY+aSOpT2DuOK7JEp2IwRrHGfIL45+/ghFWXNtgr0CUX+efwW
Rw==
-----END CERTIFICATE-----
